target datalayout = "e-m:e-p270:32:32-p271:32:32-p272:64:64-i64:64-i128:128-f80:128-n8:16:32:64-S128"
target triple = "x86_64-pc-linux-gnu"

%struct.AVFormatContext = type { ptr, ptr, ptr, ptr, ptr, i32, i32, ptr, i32, ptr, i32, ptr, ptr, i64, i64, i64, i32, i32, i32, i64, i64, ptr, i32, i32, ptr, i32, i32, i32, i32, ptr, i64, i32, i32, %struct.AVIOInterruptCB, i32, i32, i32, i32, i64, i32, i32, i32, i32, i32, i32, i32, i32, i32, i32, i32, i32, i64, i32, i32, i32, i32, i32, ptr, ptr, ptr, ptr, i32, ptr, ptr, ptr, ptr, i32, ptr, ptr, i64, ptr, ptr, ptr, i64 }
%struct.AVIOInterruptCB = type { ptr, ptr }
%struct.SegmentContext = type { ptr, i32, i32, i32, i32, ptr, ptr, ptr, ptr, ptr, i32, i32, i32, i32, i64, i64, i64, i32, i32, ptr, i32, ptr, i64, i64, i32, i32, ptr, ptr, i32, ptr, ptr, i32, i32, i32, i64, i32, i32, ptr, i32, i64, ptr, i32, i64, i32, i32, i32, [1024 x i8], %struct.SegmentListEntry, ptr, ptr }
%struct.SegmentListEntry = type { i32, double, double, i64, i64, ptr, ptr, i64 }
%struct.tm = type { i32, i32, i32, i32, i32, i32, i32, i32, i32, i64, ptr }

@.str.118 = private unnamed_addr constant [46 x i8] c"Could not get segment filename with strftime\0A\00", align 1
@.str.119 = private unnamed_addr constant [40 x i8] c"Invalid segment filename template '%s'\0A\00", align 1
@.str.120 = private unnamed_addr constant [5 x i8] c"%s%s\00", align 1
@.str.121 = private unnamed_addr constant [1 x i8] zeroinitializer, align 1

; Function Attrs: nounwind uwtable
define internal i32 @set_segment_filename(ptr noundef %0) #0 {
  %2 = alloca i32, align 4
  %3 = alloca ptr, align 8
  %4 = alloca ptr, align 8
  %5 = alloca ptr, align 8
  %6 = alloca i64, align 8
  %7 = alloca i32, align 4
  %8 = alloca [1024 x i8], align 16
  %9 = alloca ptr, align 8
  %10 = alloca i64, align 8
  %11 = alloca ptr, align 8
  %12 = alloca %struct.tm, align 8
  %13 = alloca i32, align 4
  store ptr %0, ptr %3, align 8, !tbaa !4
  call void @llvm.lifetime.start.p0(i64 8, ptr %4) #12
  %14 = load ptr, ptr %3, align 8, !tbaa !4
  %15 = getelementptr inbounds nuw %struct.AVFormatContext, ptr %14, i32 0, i32 3
  %16 = load ptr, ptr %15, align 8, !tbaa !9
  store ptr %16, ptr %4, align 8, !tbaa !26
  call void @llvm.lifetime.start.p0(i64 8, ptr %5) #12
  %17 = load ptr, ptr %4, align 8, !tbaa !26
  %18 = getelementptr inbounds nuw %struct.SegmentContext, ptr %17, i32 0, i32 6
  %19 = load ptr, ptr %18, align 8, !tbaa !28
  store ptr %19, ptr %5, align 8, !tbaa !4
  call void @llvm.lifetime.start.p0(i64 8, ptr %6) #12
  call void @llvm.lifetime.start.p0(i64 4, ptr %7) #12
  call void @llvm.lifetime.start.p0(i64 1024, ptr %8) #12
  call void @llvm.lifetime.start.p0(i64 8, ptr %9) #12
  %20 = load ptr, ptr %4, align 8, !tbaa !26
  %21 = getelementptr inbounds nuw %struct.SegmentContext, ptr %20, i32 0, i32 2
  %22 = load i32, ptr %21, align 4, !tbaa !96
  %23 = icmp ne i32 %22, 0
  br i1 %23, label %24, label %32

24:                                               ; preds = %1
  %25 = load ptr, ptr %4, align 8, !tbaa !26
  %26 = getelementptr inbounds nuw %struct.SegmentContext, ptr %25, i32 0, i32 2
  %27 = load i32, ptr %26, align 4, !tbaa !96
  %28 = load ptr, ptr %4, align 8, !tbaa !26
  %29 = getelementptr inbounds nuw %struct.SegmentContext, ptr %28, i32 0, i32 1
  %30 = load i32, ptr %29, align 8, !tbaa !95
  %31 = srem i32 %30, %27
  store i32 %31, ptr %29, align 8, !tbaa !95
  br label %32

32:                                               ; preds = %24, %1
  %33 = load ptr, ptr %4, align 8, !tbaa !26
  %34 = getelementptr inbounds nuw %struct.SegmentContext, ptr %33, i32 0, i32 24
  %35 = load i32, ptr %34, align 8, !tbaa !191
  %36 = icmp ne i32 %35, 0
  br i1 %36, label %37, label %53

37:                                               ; preds = %32
  call void @llvm.lifetime.start.p0(i64 8, ptr %10) #12
  call void @llvm.lifetime.start.p0(i64 8, ptr %11) #12
  call void @llvm.lifetime.start.p0(i64 56, ptr %12) #12
  %38 = call i64 @time(ptr noundef %10) #12
  %39 = call ptr @localtime_r(ptr noundef %10, ptr noundef %12) #12
  store ptr %39, ptr %11, align 8, !tbaa !192
  %40 = getelementptr inbounds [1024 x i8], ptr %8, i64 0, i64 0
  %41 = load ptr, ptr %3, align 8, !tbaa !4
  %42 = getelementptr inbounds nuw %struct.AVFormatContext, ptr %41, i32 0, i32 12
  %43 = load ptr, ptr %42, align 8, !tbaa !41
  %44 = load ptr, ptr %11, align 8, !tbaa !192
  %45 = call i64 @strftime(ptr noundef %40, i64 noundef 1024, ptr noundef %43, ptr noundef %44) #12
  %46 = icmp ne i64 %45, 0
  br i1 %46, label %49, label %47

47:                                               ; preds = %37
  %48 = load ptr, ptr %5, align 8, !tbaa !4
  call void (ptr, i32, ptr, ...) @av_log(ptr noundef %48, i32 noundef 16, ptr noundef @.str.118)
  store i32 -22, ptr %2, align 4
  store i32 1, ptr %13, align 4
  br label %50

49:                                               ; preds = %37
  store i32 0, ptr %13, align 4
  br label %50

50:                                               ; preds = %49, %47
  call void @llvm.lifetime.end.p0(i64 56, ptr %12) #12
  call void @llvm.lifetime.end.p0(i64 8, ptr %11) #12
  call void @llvm.lifetime.end.p0(i64 8, ptr %10) #12
  %51 = load i32, ptr %13, align 4
  switch i32 %51, label %126 [
    i32 0, label %52
  ]

52:                                               ; preds = %50
  br label %69

53:                                               ; preds = %32
  %54 = getelementptr inbounds [1024 x i8], ptr %8, i64 0, i64 0
  %55 = load ptr, ptr %3, align 8, !tbaa !4
  %56 = getelementptr inbounds nuw %struct.AVFormatContext, ptr %55, i32 0, i32 12
  %57 = load ptr, ptr %56, align 8, !tbaa !41
  %58 = load ptr, ptr %4, align 8, !tbaa !26
  %59 = getelementptr inbounds nuw %struct.SegmentContext, ptr %58, i32 0, i32 1
  %60 = load i32, ptr %59, align 8, !tbaa !95
  %61 = call i32 @av_get_frame_filename(ptr noundef %54, i32 noundef 1024, ptr noundef %57, i32 noundef %60)
  %62 = icmp slt i32 %61, 0
  br i1 %62, label %63, label %68

63:                                               ; preds = %53
  %64 = load ptr, ptr %5, align 8, !tbaa !4
  %65 = load ptr, ptr %3, align 8, !tbaa !4
  %66 = getelementptr inbounds nuw %struct.AVFormatContext, ptr %65, i32 0, i32 12
  %67 = load ptr, ptr %66, align 8, !tbaa !41
  call void (ptr, i32, ptr, ...) @av_log(ptr noundef %64, i32 noundef 16, ptr noundef @.str.119, ptr noundef %67)
  store i32 -22, ptr %2, align 4
  store i32 1, ptr %13, align 4
  br label %126

68:                                               ; preds = %53
  br label %69

69:                                               ; preds = %68, %52
  %70 = getelementptr inbounds [1024 x i8], ptr %8, i64 0, i64 0
  %71 = call noalias ptr @av_strdup(ptr noundef %70)
  store ptr %71, ptr %9, align 8, !tbaa !63
  %72 = load ptr, ptr %9, align 8, !tbaa !63
  %73 = icmp ne ptr %72, null
  br i1 %73, label %75, label %74

74:                                               ; preds = %69
  store i32 -12, ptr %2, align 4
  store i32 1, ptr %13, align 4
  br label %126

75:                                               ; preds = %69
  %76 = load ptr, ptr %5, align 8, !tbaa !4
  %77 = load ptr, ptr %9, align 8, !tbaa !63
  call void @ff_format_set_url(ptr noundef %76, ptr noundef %77)
  %78 = load ptr, ptr %5, align 8, !tbaa !4
  %79 = getelementptr inbounds nuw %struct.AVFormatContext, ptr %78, i32 0, i32 12
  %80 = load ptr, ptr %79, align 8, !tbaa !41
  %81 = call ptr @av_basename(ptr noundef %80)
  %82 = call i64 @strlen(ptr noundef %81) #14
  %83 = add i64 %82, 1
  store i64 %83, ptr %6, align 8, !tbaa !56
  %84 = load ptr, ptr %4, align 8, !tbaa !26
  %85 = getelementptr inbounds nuw %struct.SegmentContext, ptr %84, i32 0, i32 19
  %86 = load ptr, ptr %85, align 8, !tbaa !194
  %87 = icmp ne ptr %86, null
  br i1 %87, label %88, label %95

88:                                               ; preds = %75
  %89 = load ptr, ptr %4, align 8, !tbaa !26
  %90 = getelementptr inbounds nuw %struct.SegmentContext, ptr %89, i32 0, i32 19
  %91 = load ptr, ptr %90, align 8, !tbaa !194
  %92 = call i64 @strlen(ptr noundef %91) #14
  %93 = load i64, ptr %6, align 8, !tbaa !56
  %94 = add i64 %93, %92
  store i64 %94, ptr %6, align 8, !tbaa !56
  br label %95

95:                                               ; preds = %88, %75
  %96 = load ptr, ptr %4, align 8, !tbaa !26
  %97 = getelementptr inbounds nuw %struct.SegmentContext, ptr %96, i32 0, i32 47
  %98 = getelementptr inbounds nuw %struct.SegmentListEntry, ptr %97, i32 0, i32 5
  %99 = load i64, ptr %6, align 8, !tbaa !56
  %100 = call i32 @av_reallocp(ptr noundef %98, i64 noundef %99)
  store i32 %100, ptr %7, align 4, !tbaa !36
  %101 = icmp slt i32 %100, 0
  br i1 %101, label %102, label %104

102:                                              ; preds = %95
  %103 = load i32, ptr %7, align 4, !tbaa !36
  store i32 %103, ptr %2, align 4
  store i32 1, ptr %13, align 4
  br label %126

104:                                              ; preds = %95
  %105 = load ptr, ptr %4, align 8, !tbaa !26
  %106 = getelementptr inbounds nuw %struct.SegmentContext, ptr %105, i32 0, i32 47
  %107 = getelementptr inbounds nuw %struct.SegmentListEntry, ptr %106, i32 0, i32 5
  %108 = load ptr, ptr %107, align 8, !tbaa !195
  %109 = load i64, ptr %6, align 8, !tbaa !56
  %110 = load ptr, ptr %4, align 8, !tbaa !26
  %111 = getelementptr inbounds nuw %struct.SegmentContext, ptr %110, i32 0, i32 19
  %112 = load ptr, ptr %111, align 8, !tbaa !194
  %113 = icmp ne ptr %112, null
  br i1 %113, label %114, label %118

114:                                              ; preds = %104
  %115 = load ptr, ptr %4, align 8, !tbaa !26
  %116 = getelementptr inbounds nuw %struct.SegmentContext, ptr %115, i32 0, i32 19
  %117 = load ptr, ptr %116, align 8, !tbaa !194
  br label %119

118:                                              ; preds = %104
  br label %119

119:                                              ; preds = %118, %114
  %120 = phi ptr [ %117, %114 ], [ @.str.121, %118 ]
  %121 = load ptr, ptr %5, align 8, !tbaa !4
  %122 = getelementptr inbounds nuw %struct.AVFormatContext, ptr %121, i32 0, i32 12
  %123 = load ptr, ptr %122, align 8, !tbaa !41
  %124 = call ptr @av_basename(ptr noundef %123)
  %125 = call i32 (ptr, i64, ptr, ...) @snprintf(ptr noundef %108, i64 noundef %109, ptr noundef @.str.120, ptr noundef %120, ptr noundef %124) #12
  store i32 0, ptr %2, align 4
  store i32 1, ptr %13, align 4
  br label %126

126:                                              ; preds = %119, %102, %74, %63, %50
  call void @llvm.lifetime.end.p0(i64 8, ptr %9) #12
  call void @llvm.lifetime.end.p0(i64 1024, ptr %8) #12
  call void @llvm.lifetime.end.p0(i64 4, ptr %7) #12
  call void @llvm.lifetime.end.p0(i64 8, ptr %6) #12
  call void @llvm.lifetime.end.p0(i64 8, ptr %5) #12
  call void @llvm.lifetime.end.p0(i64 8, ptr %4) #12
  %127 = load i32, ptr %2, align 4
  ret i32 %127
}