; Function Attrs: nounwind uwtable
define internal fastcc range(i32 -2147483648, 1) i32 @set_segment_filename(ptr noundef readonly captures(none) %0) unnamed_addr #0 {
  %2 = alloca [1024 x i8], align 16
  %3 = alloca i64, align 8
  %4 = alloca %struct.tm, align 8
  %5 = getelementptr inbounds nuw i8, ptr %0, i64 24
  %6 = load ptr, ptr %5, align 8, !tbaa !4
  %7 = getelementptr inbounds nuw i8, ptr %6, i64 32
  %8 = load ptr, ptr %7, align 8, !tbaa !24
  call void @llvm.lifetime.start.p0(i64 1024, ptr nonnull %2) #13
  %9 = getelementptr inbounds nuw i8, ptr %6, i64 12
  %10 = load i32, ptr %9, align 4, !tbaa !89
  %.not = icmp eq i32 %10, 0
  br i1 %.not, label %15, label %11

11:                                               ; preds = %1
  %12 = getelementptr inbounds nuw i8, ptr %6, i64 8
  %13 = load i32, ptr %12, align 8, !tbaa !88
  %14 = srem i32 %13, %10
  store i32 %14, ptr %12, align 8, !tbaa !88
  br label %15

15:                                               ; preds = %11, %1
  %16 = getelementptr inbounds nuw i8, ptr %6, i64 152
  %17 = load i32, ptr %16, align 8, !tbaa !183
  %.not36 = icmp eq i32 %17, 0
  br i1 %.not36, label %25, label %18

18:                                               ; preds = %15
  call void @llvm.lifetime.start.p0(i64 8, ptr nonnull %3) #13
  call void @llvm.lifetime.start.p0(i64 56, ptr nonnull %4) #13
  %19 = call i64 @time(ptr noundef nonnull %3) #13
  %20 = call ptr @localtime_r(ptr noundef nonnull %3, ptr noundef nonnull %4) #13
  %21 = getelementptr inbounds nuw i8, ptr %0, i64 88
  %22 = load ptr, ptr %21, align 8, !tbaa !38
  %23 = call i64 @strftime(ptr noundef nonnull %2, i64 noundef 1024, ptr noundef %22, ptr noundef %20) #13
  %.not37.not = icmp eq i64 %23, 0
  br i1 %.not37.not, label %24, label %.critedge

24:                                               ; preds = %18
  call void (ptr, i32, ptr, ...) @av_log(ptr noundef %8, i32 noundef 16, ptr noundef nonnull @.str.118) #13
  call void @llvm.lifetime.end.p0(i64 56, ptr nonnull %4) #13
  call void @llvm.lifetime.end.p0(i64 8, ptr nonnull %3) #13
  br label %57

25:                                               ; preds = %15
  %26 = getelementptr inbounds nuw i8, ptr %0, i64 88
  %27 = load ptr, ptr %26, align 8, !tbaa !38
  %28 = getelementptr inbounds nuw i8, ptr %6, i64 8
  %29 = load i32, ptr %28, align 8, !tbaa !88
  %30 = call i32 @av_get_frame_filename(ptr noundef nonnull %2, i32 noundef 1024, ptr noundef %27, i32 noundef %29) #13
  %31 = icmp slt i32 %30, 0
  br i1 %31, label %32, label %34

32:                                               ; preds = %25
  %33 = load ptr, ptr %26, align 8, !tbaa !38
  call void (ptr, i32, ptr, ...) @av_log(ptr noundef %8, i32 noundef 16, ptr noundef nonnull @.str.119, ptr noundef %33) #13
  br label %57

.critedge:                                        ; preds = %18
  call void @llvm.lifetime.end.p0(i64 56, ptr nonnull %4) #13
  call void @llvm.lifetime.end.p0(i64 8, ptr nonnull %3) #13
  br label %34

34:                                               ; preds = %.critedge, %25
  %35 = call noalias ptr @av_strdup(ptr noundef nonnull %2) #13
  %.not38 = icmp eq ptr %35, null
  br i1 %.not38, label %57, label %36

36:                                               ; preds = %34
  call void @ff_format_set_url(ptr noundef %8, ptr noundef nonnull %35) #13
  %37 = getelementptr inbounds nuw i8, ptr %8, i64 88
  %38 = load ptr, ptr %37, align 8, !tbaa !38
  %39 = call ptr @av_basename(ptr noundef %38) #13
  %40 = call i64 @strlen(ptr noundef nonnull dereferenceable(1) %39) #15
  %41 = add i64 %40, 1
  %42 = getelementptr inbounds nuw i8, ptr %6, i64 112
  %43 = load ptr, ptr %42, align 8, !tbaa !184
  %.not39 = icmp eq ptr %43, null
  br i1 %.not39, label %47, label %44

44:                                               ; preds = %36
  %45 = call i64 @strlen(ptr noundef nonnull dereferenceable(1) %43) #15
  %46 = add i64 %45, %41
  br label %47

47:                                               ; preds = %44, %36
  %.030 = phi i64 [ %46, %44 ], [ %41, %36 ]
  %48 = getelementptr inbounds nuw i8, ptr %6, i64 1360
  %49 = call i32 @av_reallocp(ptr noundef nonnull %48, i64 noundef %.030) #13
  %50 = icmp slt i32 %49, 0
  br i1 %50, label %57, label %51

51:                                               ; preds = %47
  %52 = load ptr, ptr %48, align 8, !tbaa !185
  %53 = load ptr, ptr %42, align 8, !tbaa !184
  %.not40 = icmp eq ptr %53, null
  %spec.select = select i1 %.not40, ptr @.str.121, ptr %53
  %54 = load ptr, ptr %37, align 8, !tbaa !38
  %55 = call ptr @av_basename(ptr noundef %54) #13
  %56 = call i32 (ptr, i64, ptr, ...) @snprintf(ptr noundef %52, i64 noundef %.030, ptr noundef nonnull @.str.120, ptr noundef nonnull %spec.select, ptr noundef %55) #13
  br label %57

57:                                               ; preds = %24, %47, %34, %51, %32
  %.1 = phi i32 [ 0, %51 ], [ -22, %24 ], [ -22, %32 ], [ -12, %34 ], [ %49, %47 ]
  call void @llvm.lifetime.end.p0(i64 1024, ptr nonnull %2) #13
  ret i32 %.1
}